target datalayout = "e-m:e-p270:32:32-p271:32:32-p272:64:64-i64:64-i128:128-f80:128-n8:16:32:64-S128"
target triple = "x86_64-unknown-linux-gnu"

%"class.std::unordered_map" = type { %"class.std::_Hashtable" }
%"class.std::_Hashtable" = type { ptr, i64, %"struct.std::__detail::_Hash_node_base", i64, %"struct.std::__detail::_Prime_rehash_policy", ptr }
%"struct.std::__detail::_Hash_node_base" = type { ptr }
%"struct.std::__detail::_Prime_rehash_policy" = type { float, i64 }

; Function Attrs: mustprogress nounwind uwtable
define linkonce_odr void @_ZNSt13unordered_mapIjSt10shared_ptrIN4toku8locktreeEESt4hashIjESt8equal_toIjESaISt4pairIKjS3_EEED2Ev(ptr noundef nonnull align 8 dereferenceable(56) %this) unnamed_addr #1 comdat align 2 {
entry:
  %this.addr = alloca ptr, align 8
  store ptr %this, ptr %this.addr, align 8
  %this1 = load ptr, ptr %this.addr, align 8
  %_M_h = getelementptr inbounds %"class.std::unordered_map", ptr %this1, i32 0, i32 0
  call void @_ZNSt10_HashtableIjSt4pairIKjSt10shared_ptrIN4toku8locktreeEEESaIS6_ENSt8__detail10_Select1stESt8equal_toIjESt4hashIjENS8_18_Mod_range_hashingENS8_20_Default_ranged_hashENS8_20_Prime_rehash_policyENS8_17_Hashtable_traitsILb0ELb0ELb1EEEED2Ev(ptr noundef nonnull align 8 dereferenceable(56) %_M_h) #3
  ret void
}

; Function Attrs: mustprogress nounwind uwtable
define internal void @_ZN7rocksdb12_GLOBAL__N_122UnrefLockTreeMapsCacheEPv(ptr noundef %ptr) #1 {
entry:
  %ptr.addr = alloca ptr, align 8
  %lock_tree_map_cache = alloca ptr, align 8
  store ptr %ptr, ptr %ptr.addr, align 8
  %0 = load ptr, ptr %ptr.addr, align 8
  store ptr %0, ptr %lock_tree_map_cache, align 8
  %1 = load ptr, ptr %lock_tree_map_cache, align 8
  %isnull = icmp eq ptr %1, null
  br i1 %isnull, label %delete.end, label %delete.notnull

delete.notnull:                                   ; preds = %entry
  call void @_ZNSt13unordered_mapIjSt10shared_ptrIN4toku8locktreeEESt4hashIjESt8equal_toIjESaISt4pairIKjS3_EEED2Ev(ptr noundef nonnull align 8 dereferenceable(56) %1) #3
  call void @_ZdlPv(ptr noundef %1) #20
  br label %delete.end

delete.end:                                       ; preds = %delete.notnull, %entry
  ret void
}