; Function Attrs: mustprogress nounwind uwtable
define internal void @_ZN7rocksdb12_GLOBAL__N_122UnrefLockTreeMapsCacheEPv(ptr noundef %ptr) #0 {
entry:
  %isnull = icmp eq ptr %ptr, null
  br i1 %isnull, label %delete.end, label %delete.notnull

delete.notnull:                                   ; preds = %entry
  tail call void @_ZNSt10_HashtableIjSt4pairIKjSt10shared_ptrIN4toku8locktreeEEESaIS6_ENSt8__detail10_Select1stESt8equal_toIjESt4hashIjENS8_18_Mod_range_hashingENS8_20_Default_ranged_hashENS8_20_Prime_rehash_policyENS8_17_Hashtable_traitsILb0ELb0ELb1EEEED2Ev(ptr noundef nonnull align 8 dereferenceable(56) %ptr) #23
  tail call void @_ZdlPv(ptr noundef nonnull %ptr) #22
  br label %delete.end

delete.end:                                       ; preds = %delete.notnull, %entry
  ret void
}